target datalayout = "e-m:e-p270:32:32-p271:32:32-p272:64:64-i64:64-i128:128-f80:128-n8:16:32:64-S128"
target triple = "x86_64-pc-linux-gnu"

%struct.LogicalRepRollbackPreparedTxnData = type { i64, i64, i64, i64, i32, [200 x i8] }

@.str.1 = private unnamed_addr constant [8 x i8] c"proto.c\00", align 1
@.str.9 = private unnamed_addr constant [51 x i8] c"unrecognized flags %u in rollback prepared message\00", align 1
@__func__.logicalrep_read_rollback_prepared = private unnamed_addr constant [34 x i8] c"logicalrep_read_rollback_prepared\00", align 1
@.str.10 = private unnamed_addr constant [56 x i8] c"prepare_end_lsn is not set in rollback prepared message\00", align 1
@.str.11 = private unnamed_addr constant [57 x i8] c"rollback_end_lsn is not set in rollback prepared message\00", align 1

; Function Attrs: nounwind uwtable
define dso_local void @logicalrep_read_rollback_prepared(ptr noundef %0, ptr noundef %1) #0 {
  %3 = alloca ptr, align 8
  %4 = alloca ptr, align 8
  %5 = alloca i8, align 1
  store ptr %0, ptr %3, align 8
  store ptr %1, ptr %4, align 8
  call void @llvm.lifetime.start.p0(i64 1, ptr %5) #9
  %6 = load ptr, ptr %3, align 8
  %7 = call i32 @pq_getmsgbyte(ptr noundef %6)
  %8 = trunc i32 %7 to i8
  store i8 %8, ptr %5, align 1
  %9 = load i8, ptr %5, align 1
  %10 = zext i8 %9 to i32
  %11 = icmp ne i32 %10, 0
  br i1 %11, label %12, label %25

12:                                               ; preds = %2
  br label %13

13:                                               ; preds = %12
  br i1 true, label %14, label %16

14:                                               ; preds = %13
  %15 = call zeroext i1 @errstart_cold(i32 noundef 21, ptr noundef null) #8
  br i1 %15, label %18, label %22

16:                                               ; preds = %13
  %17 = call zeroext i1 @errstart(i32 noundef 21, ptr noundef null)
  br i1 %17, label %18, label %22

18:                                               ; preds = %16, %14
  %19 = load i8, ptr %5, align 1
  %20 = zext i8 %19 to i32
  %21 = call i32 (ptr, ...) @errmsg_internal(ptr noundef @.str.9, i32 noundef %20)
  call void @errfinish(ptr noundef @.str.1, i32 noundef 332, ptr noundef @__func__.logicalrep_read_rollback_prepared)
  br label %22

22:                                               ; preds = %18, %16, %14
  unreachable

23:                                               ; No predecessors!
  br label %24

24:                                               ; preds = %23
  br label %25

25:                                               ; preds = %24, %2
  %26 = load ptr, ptr %3, align 8
  %27 = call i64 @pq_getmsgint64(ptr noundef %26)
  %28 = load ptr, ptr %4, align 8
  %29 = getelementptr inbounds nuw %struct.LogicalRepRollbackPreparedTxnData, ptr %28, i32 0, i32 0
  store i64 %27, ptr %29, align 8
  %30 = load ptr, ptr %4, align 8
  %31 = getelementptr inbounds nuw %struct.LogicalRepRollbackPreparedTxnData, ptr %30, i32 0, i32 0
  %32 = load i64, ptr %31, align 8
  %33 = icmp eq i64 %32, 0
  br i1 %33, label %34, label %45

34:                                               ; preds = %25
  br label %35

35:                                               ; preds = %34
  br i1 true, label %36, label %38

36:                                               ; preds = %35
  %37 = call zeroext i1 @errstart_cold(i32 noundef 21, ptr noundef null) #8
  br i1 %37, label %40, label %42

38:                                               ; preds = %35
  %39 = call zeroext i1 @errstart(i32 noundef 21, ptr noundef null)
  br i1 %39, label %40, label %42

40:                                               ; preds = %38, %36
  %41 = call i32 (ptr, ...) @errmsg_internal(ptr noundef @.str.10)
  call void @errfinish(ptr noundef @.str.1, i32 noundef 337, ptr noundef @__func__.logicalrep_read_rollback_prepared)
  br label %42

42:                                               ; preds = %40, %38, %36
  unreachable

43:                                               ; No predecessors!
  br label %44

44:                                               ; preds = %43
  br label %45

45:                                               ; preds = %44, %25
  %46 = load ptr, ptr %3, align 8
  %47 = call i64 @pq_getmsgint64(ptr noundef %46)
  %48 = load ptr, ptr %4, align 8
  %49 = getelementptr inbounds nuw %struct.LogicalRepRollbackPreparedTxnData, ptr %48, i32 0, i32 1
  store i64 %47, ptr %49, align 8
  %50 = load ptr, ptr %4, align 8
  %51 = getelementptr inbounds nuw %struct.LogicalRepRollbackPreparedTxnData, ptr %50, i32 0, i32 1
  %52 = load i64, ptr %51, align 8
  %53 = icmp eq i64 %52, 0
  br i1 %53, label %54, label %65

54:                                               ; preds = %45
  br label %55

55:                                               ; preds = %54
  br i1 true, label %56, label %58

56:                                               ; preds = %55
  %57 = call zeroext i1 @errstart_cold(i32 noundef 21, ptr noundef null) #8
  br i1 %57, label %60, label %62

58:                                               ; preds = %55
  %59 = call zeroext i1 @errstart(i32 noundef 21, ptr noundef null)
  br i1 %59, label %60, label %62

60:                                               ; preds = %58, %56
  %61 = call i32 (ptr, ...) @errmsg_internal(ptr noundef @.str.11)
  call void @errfinish(ptr noundef @.str.1, i32 noundef 340, ptr noundef @__func__.logicalrep_read_rollback_prepared)
  br label %62

62:                                               ; preds = %60, %58, %56
  unreachable

63:                                               ; No predecessors!
  br label %64

64:                                               ; preds = %63
  br label %65

65:                                               ; preds = %64, %45
  %66 = load ptr, ptr %3, align 8
  %67 = call i64 @pq_getmsgint64(ptr noundef %66)
  %68 = load ptr, ptr %4, align 8
  %69 = getelementptr inbounds nuw %struct.LogicalRepRollbackPreparedTxnData, ptr %68, i32 0, i32 2
  store i64 %67, ptr %69, align 8
  %70 = load ptr, ptr %3, align 8
  %71 = call i64 @pq_getmsgint64(ptr noundef %70)
  %72 = load ptr, ptr %4, align 8
  %73 = getelementptr inbounds nuw %struct.LogicalRepRollbackPreparedTxnData, ptr %72, i32 0, i32 3
  store i64 %71, ptr %73, align 8
  %74 = load ptr, ptr %3, align 8
  %75 = call i32 @pq_getmsgint(ptr noundef %74, i32 noundef 4)
  %76 = load ptr, ptr %4, align 8
  %77 = getelementptr inbounds nuw %struct.LogicalRepRollbackPreparedTxnData, ptr %76, i32 0, i32 4
  store i32 %75, ptr %77, align 8
  %78 = load ptr, ptr %4, align 8
  %79 = getelementptr inbounds nuw %struct.LogicalRepRollbackPreparedTxnData, ptr %78, i32 0, i32 5
  %80 = getelementptr inbounds [200 x i8], ptr %79, i64 0, i64 0
  %81 = load ptr, ptr %3, align 8
  %82 = call ptr @pq_getmsgstring(ptr noundef %81)
  %83 = call i64 @strlcpy(ptr noundef %80, ptr noundef %82, i64 noundef 200)
  call void @llvm.lifetime.end.p0(i64 1, ptr %5) #9
  ret void
}